; Function Attrs: nounwind uwtable
define internal void @pcb_error_callback(ptr noundef readonly captures(none) %0) #0 {
  %2 = tail call i32 @geterrcode() #8
  %.not = icmp eq i32 %2, 67371461
  br i1 %.not, label %parser_errposition.exit, label %3

3:                                                ; preds = %1
  %4 = load ptr, ptr %0, align 8
  %5 = getelementptr inbounds nuw i8, ptr %0, i64 8
  %6 = load i32, ptr %5, align 8
  %7 = icmp slt i32 %6, 0
  %8 = icmp eq ptr %4, null
  %or.cond.i = or i1 %8, %7
  br i1 %or.cond.i, label %parser_errposition.exit, label %9

9:                                                ; preds = %3
  %10 = getelementptr inbounds nuw i8, ptr %4, i64 8
  %11 = load ptr, ptr %10, align 8
  %12 = icmp eq ptr %11, null
  br i1 %12, label %parser_errposition.exit, label %13

13:                                               ; preds = %9
  %14 = tail call i32 @pg_mbstrlen_with_len(ptr noundef nonnull %11, i32 noundef %6) #8
  %15 = add i32 %14, 1
  %16 = tail call i32 @errposition(i32 noundef %15) #8
  br label %parser_errposition.exit

parser_errposition.exit:                          ; preds = %13, %9, %3, %1
  ret void
}